target datalayout = "e-m:e-p270:32:32-p271:32:32-p272:64:64-i64:64-i128:128-f80:128-n8:16:32:64-S128"
target triple = "x86_64-pc-linux-gnu"

@.str.16 = private unnamed_addr constant [21 x i8] c"%02d:%02d:%02d%c%02d\00", align 1

; Function Attrs: nounwind uwtable
define internal i32 @add_timecode_metadata(ptr noundef %0, ptr noundef %1, i32 noundef %2, i32 noundef %3) #0 {
  %5 = alloca i32, align 4
  %6 = alloca ptr, align 8
  %7 = alloca ptr, align 8
  %8 = alloca i32, align 4
  %9 = alloca i32, align 4
  %10 = alloca [128 x i8], align 16
  %11 = alloca i32, align 4
  %12 = alloca i32, align 4
  %13 = alloca i32, align 4
  %14 = alloca i32, align 4
  %15 = alloca i32, align 4
  %16 = alloca i32, align 4
  %17 = alloca i32, align 4
  store ptr %0, ptr %6, align 8, !tbaa !96
  store ptr %1, ptr %7, align 8, !tbaa !98
  store i32 %2, ptr %8, align 4, !tbaa !34
  store i32 %3, ptr %9, align 4, !tbaa !34
  call void @llvm.lifetime.start.p0(i64 128, ptr %10) #10
  call void @llvm.lifetime.start.p0(i64 4, ptr %11) #10
  %18 = load i32, ptr %8, align 4, !tbaa !34
  %19 = and i32 %18, 255
  store i32 %19, ptr %11, align 4, !tbaa !34
  call void @llvm.lifetime.start.p0(i64 4, ptr %12) #10
  %20 = load i32, ptr %9, align 4, !tbaa !34
  %21 = icmp ne i32 %20, 0
  br i1 %21, label %22, label %26

22:                                               ; preds = %4
  %23 = load i32, ptr %11, align 4, !tbaa !34
  %24 = load i32, ptr %9, align 4, !tbaa !34
  %25 = sdiv i32 %23, %24
  br label %28

26:                                               ; preds = %4
  %27 = load i32, ptr %11, align 4, !tbaa !34
  br label %28

28:                                               ; preds = %26, %22
  %29 = phi i32 [ %25, %22 ], [ %27, %26 ]
  store i32 %29, ptr %12, align 4, !tbaa !34
  call void @llvm.lifetime.start.p0(i64 4, ptr %13) #10
  %30 = load i32, ptr %8, align 4, !tbaa !34
  %31 = lshr i32 %30, 8
  %32 = and i32 %31, 255
  store i32 %32, ptr %13, align 4, !tbaa !34
  call void @llvm.lifetime.start.p0(i64 4, ptr %14) #10
  %33 = load i32, ptr %8, align 4, !tbaa !34
  %34 = lshr i32 %33, 16
  %35 = and i32 %34, 255
  store i32 %35, ptr %14, align 4, !tbaa !34
  call void @llvm.lifetime.start.p0(i64 4, ptr %15) #10
  %36 = load i32, ptr %8, align 4, !tbaa !34
  %37 = lshr i32 %36, 24
  %38 = and i32 %37, 31
  store i32 %38, ptr %15, align 4, !tbaa !34
  call void @llvm.lifetime.start.p0(i64 4, ptr %16) #10
  %39 = load i32, ptr %8, align 4, !tbaa !34
  %40 = lshr i32 %39, 29
  %41 = and i32 %40, 1
  store i32 %41, ptr %16, align 4, !tbaa !34
  %42 = load i32, ptr %8, align 4, !tbaa !34
  %43 = lshr i32 %42, 31
  %44 = icmp ne i32 %43, 0
  br i1 %44, label %45, label %46

45:                                               ; preds = %28
  store i32 0, ptr %5, align 4
  store i32 1, ptr %17, align 4
  br label %60

46:                                               ; preds = %28
  %47 = getelementptr inbounds [128 x i8], ptr %10, i64 0, i64 0
  %48 = load i32, ptr %15, align 4, !tbaa !34
  %49 = load i32, ptr %14, align 4, !tbaa !34
  %50 = load i32, ptr %13, align 4, !tbaa !34
  %51 = load i32, ptr %16, align 4, !tbaa !34
  %52 = icmp ne i32 %51, 0
  %53 = select i1 %52, i32 59, i32 58
  %54 = load i32, ptr %12, align 4, !tbaa !34
  %55 = call i32 (ptr, i64, ptr, ...) @snprintf(ptr noundef %47, i64 noundef 128, ptr noundef @.str.16, i32 noundef %48, i32 noundef %49, i32 noundef %50, i32 noundef %53, i32 noundef %54) #10
  %56 = load ptr, ptr %6, align 8, !tbaa !96
  %57 = load ptr, ptr %7, align 8, !tbaa !98
  %58 = getelementptr inbounds [128 x i8], ptr %10, i64 0, i64 0
  %59 = call i32 @av_dict_set(ptr noundef %56, ptr noundef %57, ptr noundef %58, i32 noundef 0)
  store i32 %59, ptr %5, align 4
  store i32 1, ptr %17, align 4
  br label %60

60:                                               ; preds = %46, %45
  call void @llvm.lifetime.end.p0(i64 4, ptr %16) #10
  call void @llvm.lifetime.end.p0(i64 4, ptr %15) #10
  call void @llvm.lifetime.end.p0(i64 4, ptr %14) #10
  call void @llvm.lifetime.end.p0(i64 4, ptr %13) #10
  call void @llvm.lifetime.end.p0(i64 4, ptr %12) #10
  call void @llvm.lifetime.end.p0(i64 4, ptr %11) #10
  call void @llvm.lifetime.end.p0(i64 128, ptr %10) #10
  %61 = load i32, ptr %5, align 4
  ret i32 %61
}