; Function Attrs: nounwind uwtable
define internal fastcc void @add_timecode_metadata(ptr noundef %0, ptr noundef %1, i32 noundef %2, i32 noundef %3) unnamed_addr #1 {
  %5 = alloca [128 x i8], align 16
  call void @llvm.lifetime.start.p0(i64 128, ptr nonnull %5) #7
  %6 = and i32 %2, 255
  %.not = icmp eq i32 %3, 0
  br i1 %.not, label %9, label %7

7:                                                ; preds = %4
  %8 = sdiv i32 %6, %3
  br label %9

9:                                                ; preds = %4, %7
  %10 = phi i32 [ %8, %7 ], [ %6, %4 ]
  %.not18 = icmp sgt i32 %2, -1
  br i1 %.not18, label %11, label %22

11:                                               ; preds = %9
  %12 = lshr i32 %2, 24
  %13 = and i32 %12, 31
  %14 = lshr i32 %2, 16
  %15 = and i32 %14, 255
  %16 = lshr i32 %2, 8
  %17 = and i32 %16, 255
  %18 = and i32 %2, 536870912
  %.not19 = icmp eq i32 %18, 0
  %19 = select i1 %.not19, i32 58, i32 59
  %20 = call i32 (ptr, i64, ptr, ...) @snprintf(ptr noundef nonnull dereferenceable(1) %5, i64 noundef 128, ptr noundef nonnull @.str.16, i32 noundef %13, i32 noundef %15, i32 noundef %17, i32 noundef %19, i32 noundef %10) #7
  %21 = call i32 @av_dict_set(ptr noundef %0, ptr noundef %1, ptr noundef nonnull %5, i32 noundef 0) #7
  br label %22

22:                                               ; preds = %9, %11
  call void @llvm.lifetime.end.p0(i64 128, ptr nonnull %5) #7
  ret void
}